target datalayout = "e-m:e-p270:32:32-p271:32:32-p272:64:64-i64:64-i128:128-f80:128-n8:16:32:64-S128"
target triple = "x86_64-pc-linux-gnu"

%"class.std::vector.8" = type { %"struct.std::_Vector_base.9" }
%"struct.std::_Vector_base.9" = type { %"struct.std::_Vector_base<void *, std::allocator<void *>>::_Vector_impl" }
%"struct.std::_Vector_base<void *, std::allocator<void *>>::_Vector_impl" = type { %"struct.std::_Vector_base<void *, std::allocator<void *>>::_Vector_impl_data" }
%"struct.std::_Vector_base<void *, std::allocator<void *>>::_Vector_impl_data" = type { ptr, ptr, ptr }

@_ZN5Yosys13memhasher_rngE = global i32 123456, align 4
@_ZN5Yosys15memhasher_storeE = global %"class.std::vector.8" zeroinitializer, align 8

; Function Attrs: mustprogress nounwind uwtable
define linkonce_odr noundef nonnull align 8 dereferenceable(8) ptr @_ZNSt6vectorIPvSaIS0_EEixEm(ptr noundef nonnull align 8 dereferenceable(24) %0, i64 noundef %1) #6 comdat align 2 {
  %3 = alloca ptr, align 8
  %4 = alloca i64, align 8
  store ptr %0, ptr %3, align 8, !tbaa !13
  store i64 %1, ptr %4, align 8, !tbaa !25
  %5 = load ptr, ptr %3, align 8
  %6 = getelementptr inbounds nuw %"struct.std::_Vector_base.9", ptr %5, i32 0, i32 0
  %7 = getelementptr inbounds nuw %"struct.std::_Vector_base<void *, std::allocator<void *>>::_Vector_impl_data", ptr %6, i32 0, i32 0
  %8 = load ptr, ptr %7, align 8, !tbaa !15
  %9 = load i64, ptr %4, align 8, !tbaa !25
  %10 = getelementptr inbounds nuw ptr, ptr %8, i64 %9
  ret ptr %10
}

; Function Attrs: mustprogress nounwind uwtable
define void @_ZN5Yosys12memhasher_doEv() #6 {
  %1 = alloca i32, align 4
  %2 = alloca i32, align 4
  %3 = load i32, ptr @_ZN5Yosys13memhasher_rngE, align 4, !tbaa !21
  %4 = shl i32 %3, 13
  %5 = load i32, ptr @_ZN5Yosys13memhasher_rngE, align 4, !tbaa !21
  %6 = xor i32 %5, %4
  store i32 %6, ptr @_ZN5Yosys13memhasher_rngE, align 4, !tbaa !21
  %7 = load i32, ptr @_ZN5Yosys13memhasher_rngE, align 4, !tbaa !21
  %8 = lshr i32 %7, 17
  %9 = load i32, ptr @_ZN5Yosys13memhasher_rngE, align 4, !tbaa !21
  %10 = xor i32 %9, %8
  store i32 %10, ptr @_ZN5Yosys13memhasher_rngE, align 4, !tbaa !21
  %11 = load i32, ptr @_ZN5Yosys13memhasher_rngE, align 4, !tbaa !21
  %12 = shl i32 %11, 5
  %13 = load i32, ptr @_ZN5Yosys13memhasher_rngE, align 4, !tbaa !21
  %14 = xor i32 %13, %12
  store i32 %14, ptr @_ZN5Yosys13memhasher_rngE, align 4, !tbaa !21
  call void @llvm.lifetime.start.p0(i64 4, ptr %1) #3
  call void @llvm.lifetime.start.p0(i64 4, ptr %2) #3
  %15 = load i32, ptr @_ZN5Yosys13memhasher_rngE, align 4, !tbaa !21
  %16 = lshr i32 %15, 4
  %17 = and i32 %16, 65535
  store i32 %17, ptr %2, align 4, !tbaa !21
  %18 = load i32, ptr @_ZN5Yosys13memhasher_rngE, align 4, !tbaa !21
  %19 = and i32 %18, 7
  switch i32 %19, label %24 [
    i32 0, label %20
    i32 1, label %21
    i32 2, label %22
    i32 3, label %23
  ]

20:                                               ; preds = %0
  store i32 16, ptr %1, align 4, !tbaa !21
  br label %25

21:                                               ; preds = %0
  store i32 256, ptr %1, align 4, !tbaa !21
  br label %25

22:                                               ; preds = %0
  store i32 1024, ptr %1, align 4, !tbaa !21
  br label %25

23:                                               ; preds = %0
  store i32 4096, ptr %1, align 4, !tbaa !21
  br label %25

24:                                               ; preds = %0
  store i32 0, ptr %1, align 4, !tbaa !21
  br label %25

25:                                               ; preds = %24, %23, %22, %21, %20
  %26 = load i32, ptr %2, align 4, !tbaa !21
  %27 = icmp slt i32 %26, 16
  br i1 %27, label %28, label %31

28:                                               ; preds = %25
  %29 = load i32, ptr %1, align 4, !tbaa !21
  %30 = mul nsw i32 %29, 16
  store i32 %30, ptr %1, align 4, !tbaa !21
  br label %31

31:                                               ; preds = %28, %25
  %32 = load i32, ptr %2, align 4, !tbaa !21
  %33 = sext i32 %32 to i64
  %34 = call noundef nonnull align 8 dereferenceable(8) ptr @_ZNSt6vectorIPvSaIS0_EEixEm(ptr noundef nonnull align 8 dereferenceable(24) @_ZN5Yosys15memhasher_storeE, i64 noundef %33) #3
  %35 = load ptr, ptr %34, align 8, !tbaa !27
  %36 = load i32, ptr %1, align 4, !tbaa !21
  %37 = sext i32 %36 to i64
  %38 = call ptr @realloc(ptr noundef %35, i64 noundef %37) #25
  %39 = load i32, ptr %2, align 4, !tbaa !21
  %40 = sext i32 %39 to i64
  %41 = call noundef nonnull align 8 dereferenceable(8) ptr @_ZNSt6vectorIPvSaIS0_EEixEm(ptr noundef nonnull align 8 dereferenceable(24) @_ZN5Yosys15memhasher_storeE, i64 noundef %40) #3
  store ptr %38, ptr %41, align 8, !tbaa !27
  call void @llvm.lifetime.end.p0(i64 4, ptr %2) #3
  call void @llvm.lifetime.end.p0(i64 4, ptr %1) #3
  ret void
}