; Function Attrs: mustprogress nounwind willreturn uwtable
define void @_ZN5Yosys12memhasher_doEv() local_unnamed_addr #8 {
  %1 = load i32, ptr @_ZN5Yosys13memhasher_rngE, align 4, !tbaa !23
  %2 = shl i32 %1, 13
  %3 = xor i32 %2, %1
  %4 = lshr i32 %3, 17
  %5 = xor i32 %4, %3
  %6 = shl i32 %5, 5
  %7 = xor i32 %6, %5
  store i32 %7, ptr @_ZN5Yosys13memhasher_rngE, align 4, !tbaa !23
  %8 = and i32 %5, 7
  %9 = icmp samesign ult i32 %8, 4
  br i1 %9, label %switch.lookup, label %11

switch.lookup:                                    ; preds = %0
  %10 = zext nneg i32 %8 to i64
  %switch.gep = getelementptr inbounds nuw [4 x i32], ptr @switch.table._ZN5Yosys12memhasher_doEv, i64 0, i64 %10
  %switch.load = load i32, ptr %switch.gep, align 4
  br label %11

11:                                               ; preds = %0, %switch.lookup
  %.0 = phi i32 [ %switch.load, %switch.lookup ], [ 0, %0 ]
  %12 = lshr i32 %7, 4
  %13 = and i32 %12, 65535
  %14 = icmp samesign ult i32 %13, 16
  %15 = shl nuw nsw i32 %.0, 4
  %spec.select = select i1 %14, i32 %15, i32 %.0
  %16 = zext nneg i32 %13 to i64
  %17 = load ptr, ptr @_ZN5Yosys15memhasher_storeE, align 8, !tbaa !34
  %18 = getelementptr inbounds nuw ptr, ptr %17, i64 %16
  %19 = load ptr, ptr %18, align 8, !tbaa !40
  %20 = zext nneg i32 %spec.select to i64
  %21 = tail call ptr @realloc(ptr noundef %19, i64 noundef %20) #42
  %22 = load ptr, ptr @_ZN5Yosys15memhasher_storeE, align 8, !tbaa !34
  %23 = getelementptr inbounds nuw ptr, ptr %22, i64 %16
  store ptr %21, ptr %23, align 8, !tbaa !40
  ret void
}